target datalayout = "e-m:e-p270:32:32-p271:32:32-p272:64:64-i64:64-i128:128-f80:128-n8:16:32:64-S128"
target triple = "x86_64-pc-linux-gnu"

@.str.1 = private unnamed_addr constant [37 x i8] c"../openssl/test/helpers/ssltestlib.c\00", align 1
@.str.84 = private unnamed_addr constant [27 x i8] c"e = ENGINE_by_id(\22dasync\22)\00", align 1
@.str.85 = private unnamed_addr constant [7 x i8] c"dasync\00", align 1
@.str.86 = private unnamed_addr constant [15 x i8] c"ENGINE_init(e)\00", align 1
@.str.87 = private unnamed_addr constant [27 x i8] c"ENGINE_register_ciphers(e)\00", align 1

; Function Attrs: nounwind uwtable
define dso_local ptr @load_dasync() #0 {
  %1 = alloca ptr, align 8
  %2 = alloca ptr, align 8
  %3 = alloca i32, align 4
  call void @llvm.lifetime.start.p0(i64 8, ptr %2) #10
  %4 = call ptr @ENGINE_by_id(ptr noundef @.str.85)
  store ptr %4, ptr %2, align 8, !tbaa !94
  %5 = call i32 @test_ptr(ptr noundef @.str.1, i32 noundef 1470, ptr noundef @.str.84, ptr noundef %4)
  %6 = icmp ne i32 %5, 0
  br i1 %6, label %8, label %7

7:                                                ; preds = %0
  store ptr null, ptr %1, align 8
  store i32 1, ptr %3, align 4
  br label %30

8:                                                ; preds = %0
  %9 = load ptr, ptr %2, align 8, !tbaa !94
  %10 = call i32 @ENGINE_init(ptr noundef %9)
  %11 = icmp ne i32 %10, 0
  %12 = zext i1 %11 to i32
  %13 = call i32 @test_true(ptr noundef @.str.1, i32 noundef 1473, ptr noundef @.str.86, i32 noundef %12)
  %14 = icmp ne i32 %13, 0
  br i1 %14, label %18, label %15

15:                                               ; preds = %8
  %16 = load ptr, ptr %2, align 8, !tbaa !94
  %17 = call i32 @ENGINE_free(ptr noundef %16)
  store ptr null, ptr %1, align 8
  store i32 1, ptr %3, align 4
  br label %30

18:                                               ; preds = %8
  %19 = load ptr, ptr %2, align 8, !tbaa !94
  %20 = call i32 @ENGINE_register_ciphers(ptr noundef %19)
  %21 = icmp ne i32 %20, 0
  %22 = zext i1 %21 to i32
  %23 = call i32 @test_true(ptr noundef @.str.1, i32 noundef 1478, ptr noundef @.str.87, i32 noundef %22)
  %24 = icmp ne i32 %23, 0
  br i1 %24, label %28, label %25

25:                                               ; preds = %18
  %26 = load ptr, ptr %2, align 8, !tbaa !94
  %27 = call i32 @ENGINE_free(ptr noundef %26)
  store ptr null, ptr %1, align 8
  store i32 1, ptr %3, align 4
  br label %30

28:                                               ; preds = %18
  %29 = load ptr, ptr %2, align 8, !tbaa !94
  store ptr %29, ptr %1, align 8
  store i32 1, ptr %3, align 4
  br label %30

30:                                               ; preds = %28, %25, %15, %7
  call void @llvm.lifetime.end.p0(i64 8, ptr %2) #10
  %31 = load ptr, ptr %1, align 8
  ret ptr %31
}