; Function Attrs: nounwind uwtable
define dso_local noundef ptr @load_dasync() local_unnamed_addr #0 {
  %1 = tail call ptr @ENGINE_by_id(ptr noundef nonnull @.str.85) #14
  %2 = tail call i32 @test_ptr(ptr noundef nonnull @.str.1, i32 noundef 1470, ptr noundef nonnull @.str.84, ptr noundef %1) #14
  %.not = icmp eq i32 %2, 0
  br i1 %.not, label %14, label %3

3:                                                ; preds = %0
  %4 = tail call i32 @ENGINE_init(ptr noundef %1) #14
  %5 = icmp ne i32 %4, 0
  %6 = zext i1 %5 to i32
  %7 = tail call i32 @test_true(ptr noundef nonnull @.str.1, i32 noundef 1473, ptr noundef nonnull @.str.86, i32 noundef %6) #14
  %.not6 = icmp eq i32 %7, 0
  br i1 %.not6, label %.sink.split, label %8

8:                                                ; preds = %3
  %9 = tail call i32 @ENGINE_register_ciphers(ptr noundef %1) #14
  %10 = icmp ne i32 %9, 0
  %11 = zext i1 %10 to i32
  %12 = tail call i32 @test_true(ptr noundef nonnull @.str.1, i32 noundef 1478, ptr noundef nonnull @.str.87, i32 noundef %11) #14
  %.not7 = icmp eq i32 %12, 0
  br i1 %.not7, label %.sink.split, label %14

.sink.split:                                      ; preds = %8, %3
  %13 = tail call i32 @ENGINE_free(ptr noundef %1) #14
  br label %14

14:                                               ; preds = %.sink.split, %8, %0
  %.0 = phi ptr [ null, %0 ], [ %1, %8 ], [ null, %.sink.split ]
  ret ptr %.0
}